target datalayout = "e-m:e-p270:32:32-p271:32:32-p272:64:64-i64:64-i128:128-f80:128-n8:16:32:64-S128"
target triple = "x86_64-pc-linux-gnu"

%struct.CVodeMemRec = type { double, ptr, ptr, i32, i32, i32, double, double, ptr, i32, ptr, ptr, i32, ptr, i32, i32, double, double, ptr, i32, i32, i32, ptr, ptr, ptr, i32, i32, ptr, ptr, ptr, i32, double, i32, i32, double, ptr, ptr, i32, ptr, ptr, i32, i32, i32, double, ptr, ptr, [13 x ptr], ptr, ptr, ptr, ptr, ptr, [13 x ptr], ptr, ptr, ptr, ptr, [13 x ptr], ptr, ptr, ptr, ptr, ptr, i32, [13 x ptr], ptr, ptr, ptr, ptr, ptr, i32, double, i32, i32, i32, i32, i32, double, double, double, double, double, double, double, double, [14 x double], [6 x double], [13 x double], double, double, double, double, double, double, double, double, double, double, double, i32, ptr, i32, i64, i32, i32, i32, i32, i32, double, double, double, i64, i64, i64, i64, i64, i64, i64, i64, i64, ptr, i64, i64, ptr, i64, i64, i64, i64, i64, i64, i32, i64, i64, i64, i64, i64, i64, double, double, double, ptr, ptr, ptr, ptr, ptr, i32, i32, i64, double, double, double, i32, double, i32, i32, i32, i32, i32, i32, i32, i32, i32, i32, i32, i32, i32, i32, i32, i32, ptr, ptr, ptr, i32, [6 x [4 x double]], i32, i64, ptr, i32, ptr, ptr, double, double, double, ptr, ptr, ptr, double, double, i32, i32, i64, ptr, i32, i32, ptr, i32 }
%struct.CVadjMemRec = type { double, double, i32, i32, double, ptr, i32, ptr, i32, ptr, i32, ptr, i64, ptr, i64, i32, ptr, ptr, ptr, ptr, i32, i32, i32, i32, [13 x ptr], [13 x ptr], [13 x double], ptr, ptr, i64 }
%struct.HermiteDataMemRec = type { ptr, ptr, ptr, ptr }
%struct.DtpntMemRec = type { double, ptr }

; Function Attrs: nounwind uwtable
define internal i32 @CVAhermiteStorePnt(ptr noundef %0, ptr noundef %1) #0 {
  %3 = alloca ptr, align 8
  %4 = alloca ptr, align 8
  %5 = alloca ptr, align 8
  %6 = alloca ptr, align 8
  %7 = alloca i32, align 4
  %8 = alloca i32, align 4
  store ptr %0, ptr %3, align 8, !tbaa !11
  store ptr %1, ptr %4, align 8, !tbaa !34
  call void @llvm.lifetime.start.p0(i64 8, ptr %5) #5
  call void @llvm.lifetime.start.p0(i64 8, ptr %6) #5
  call void @llvm.lifetime.start.p0(i64 4, ptr %7) #5
  call void @llvm.lifetime.start.p0(i64 4, ptr %8) #5
  %9 = load ptr, ptr %3, align 8, !tbaa !11
  %10 = getelementptr inbounds nuw %struct.CVodeMemRec, ptr %9, i32 0, i32 194
  %11 = load ptr, ptr %10, align 8, !tbaa !15
  store ptr %11, ptr %5, align 8, !tbaa !13
  %12 = load ptr, ptr %4, align 8, !tbaa !34
  %13 = getelementptr inbounds nuw %struct.DtpntMemRec, ptr %12, i32 0, i32 1
  %14 = load ptr, ptr %13, align 8, !tbaa !66
  store ptr %14, ptr %6, align 8, !tbaa !59
  %15 = load ptr, ptr %3, align 8, !tbaa !11
  %16 = getelementptr inbounds nuw %struct.CVodeMemRec, ptr %15, i32 0, i32 46
  %17 = getelementptr inbounds [13 x ptr], ptr %16, i64 0, i64 0
  %18 = load ptr, ptr %17, align 8, !tbaa !72
  %19 = load ptr, ptr %6, align 8, !tbaa !59
  %20 = getelementptr inbounds nuw %struct.HermiteDataMemRec, ptr %19, i32 0, i32 0
  %21 = load ptr, ptr %20, align 8, !tbaa !61
  call void @N_VScale(double noundef 1.000000e+00, ptr noundef %18, ptr noundef %21)
  %22 = load ptr, ptr %5, align 8, !tbaa !13
  %23 = getelementptr inbounds nuw %struct.CVadjMemRec, ptr %22, i32 0, i32 22
  %24 = load i32, ptr %23, align 8, !tbaa !44
  %25 = icmp ne i32 %24, 0
  br i1 %25, label %26, label %53

26:                                               ; preds = %2
  store i32 0, ptr %7, align 4, !tbaa !9
  br label %27

27:                                               ; preds = %49, %26
  %28 = load i32, ptr %7, align 4, !tbaa !9
  %29 = load ptr, ptr %3, align 8, !tbaa !11
  %30 = getelementptr inbounds nuw %struct.CVodeMemRec, ptr %29, i32 0, i32 20
  %31 = load i32, ptr %30, align 4, !tbaa !56
  %32 = icmp slt i32 %28, %31
  br i1 %32, label %33, label %52

33:                                               ; preds = %27
  %34 = load ptr, ptr %3, align 8, !tbaa !11
  %35 = getelementptr inbounds nuw %struct.CVodeMemRec, ptr %34, i32 0, i32 57
  %36 = getelementptr inbounds [13 x ptr], ptr %35, i64 0, i64 0
  %37 = load ptr, ptr %36, align 8, !tbaa !73
  %38 = load i32, ptr %7, align 4, !tbaa !9
  %39 = sext i32 %38 to i64
  %40 = getelementptr inbounds ptr, ptr %37, i64 %39
  %41 = load ptr, ptr %40, align 8, !tbaa !72
  %42 = load ptr, ptr %6, align 8, !tbaa !59
  %43 = getelementptr inbounds nuw %struct.HermiteDataMemRec, ptr %42, i32 0, i32 2
  %44 = load ptr, ptr %43, align 8, !tbaa !64
  %45 = load i32, ptr %7, align 4, !tbaa !9
  %46 = sext i32 %45 to i64
  %47 = getelementptr inbounds ptr, ptr %44, i64 %46
  %48 = load ptr, ptr %47, align 8, !tbaa !72
  call void @N_VScale(double noundef 1.000000e+00, ptr noundef %41, ptr noundef %48)
  br label %49

49:                                               ; preds = %33
  %50 = load i32, ptr %7, align 4, !tbaa !9
  %51 = add nsw i32 %50, 1
  store i32 %51, ptr %7, align 4, !tbaa !9
  br label %27, !llvm.loop !78

52:                                               ; preds = %27
  br label %53

53:                                               ; preds = %52, %2
  %54 = load ptr, ptr %3, align 8, !tbaa !11
  %55 = getelementptr inbounds nuw %struct.CVodeMemRec, ptr %54, i32 0, i32 111
  %56 = load i64, ptr %55, align 8, !tbaa !79
  %57 = icmp eq i64 %56, 0
  br i1 %57, label %58, label %104

58:                                               ; preds = %53
  %59 = load ptr, ptr %3, align 8, !tbaa !11
  %60 = getelementptr inbounds nuw %struct.CVodeMemRec, ptr %59, i32 0, i32 1
  %61 = load ptr, ptr %60, align 8, !tbaa !80
  %62 = load ptr, ptr %3, align 8, !tbaa !11
  %63 = getelementptr inbounds nuw %struct.CVodeMemRec, ptr %62, i32 0, i32 83
  %64 = load double, ptr %63, align 8, !tbaa !81
  %65 = load ptr, ptr %6, align 8, !tbaa !59
  %66 = getelementptr inbounds nuw %struct.HermiteDataMemRec, ptr %65, i32 0, i32 0
  %67 = load ptr, ptr %66, align 8, !tbaa !61
  %68 = load ptr, ptr %6, align 8, !tbaa !59
  %69 = getelementptr inbounds nuw %struct.HermiteDataMemRec, ptr %68, i32 0, i32 1
  %70 = load ptr, ptr %69, align 8, !tbaa !63
  %71 = load ptr, ptr %3, align 8, !tbaa !11
  %72 = getelementptr inbounds nuw %struct.CVodeMemRec, ptr %71, i32 0, i32 2
  %73 = load ptr, ptr %72, align 8, !tbaa !82
  %74 = call i32 %61(double noundef %64, ptr noundef %67, ptr noundef %70, ptr noundef %73)
  store i32 %74, ptr %8, align 4, !tbaa !9
  %75 = load ptr, ptr %5, align 8, !tbaa !13
  %76 = getelementptr inbounds nuw %struct.CVadjMemRec, ptr %75, i32 0, i32 22
  %77 = load i32, ptr %76, align 8, !tbaa !44
  %78 = icmp ne i32 %77, 0
  br i1 %78, label %79, label %103

79:                                               ; preds = %58
  %80 = load ptr, ptr %3, align 8, !tbaa !11
  %81 = load ptr, ptr %3, align 8, !tbaa !11
  %82 = getelementptr inbounds nuw %struct.CVodeMemRec, ptr %81, i32 0, i32 83
  %83 = load double, ptr %82, align 8, !tbaa !81
  %84 = load ptr, ptr %6, align 8, !tbaa !59
  %85 = getelementptr inbounds nuw %struct.HermiteDataMemRec, ptr %84, i32 0, i32 0
  %86 = load ptr, ptr %85, align 8, !tbaa !61
  %87 = load ptr, ptr %6, align 8, !tbaa !59
  %88 = getelementptr inbounds nuw %struct.HermiteDataMemRec, ptr %87, i32 0, i32 1
  %89 = load ptr, ptr %88, align 8, !tbaa !63
  %90 = load ptr, ptr %6, align 8, !tbaa !59
  %91 = getelementptr inbounds nuw %struct.HermiteDataMemRec, ptr %90, i32 0, i32 2
  %92 = load ptr, ptr %91, align 8, !tbaa !64
  %93 = load ptr, ptr %6, align 8, !tbaa !59
  %94 = getelementptr inbounds nuw %struct.HermiteDataMemRec, ptr %93, i32 0, i32 3
  %95 = load ptr, ptr %94, align 8, !tbaa !65
  %96 = load ptr, ptr %3, align 8, !tbaa !11
  %97 = getelementptr inbounds nuw %struct.CVodeMemRec, ptr %96, i32 0, i32 50
  %98 = load ptr, ptr %97, align 8, !tbaa !54
  %99 = load ptr, ptr %3, align 8, !tbaa !11
  %100 = getelementptr inbounds nuw %struct.CVodeMemRec, ptr %99, i32 0, i32 51
  %101 = load ptr, ptr %100, align 8, !tbaa !83
  %102 = call i32 @cvSensRhsWrapper(ptr noundef %80, double noundef %83, ptr noundef %86, ptr noundef %89, ptr noundef %92, ptr noundef %95, ptr noundef %98, ptr noundef %101)
  store i32 %102, ptr %8, align 4, !tbaa !9
  br label %103

103:                                              ; preds = %79, %58
  br label %152

104:                                              ; preds = %53
  %105 = load ptr, ptr %3, align 8, !tbaa !11
  %106 = getelementptr inbounds nuw %struct.CVodeMemRec, ptr %105, i32 0, i32 78
  %107 = load double, ptr %106, align 8, !tbaa !84
  %108 = fdiv double 1.000000e+00, %107
  %109 = load ptr, ptr %3, align 8, !tbaa !11
  %110 = getelementptr inbounds nuw %struct.CVodeMemRec, ptr %109, i32 0, i32 46
  %111 = getelementptr inbounds [13 x ptr], ptr %110, i64 0, i64 1
  %112 = load ptr, ptr %111, align 8, !tbaa !72
  %113 = load ptr, ptr %6, align 8, !tbaa !59
  %114 = getelementptr inbounds nuw %struct.HermiteDataMemRec, ptr %113, i32 0, i32 1
  %115 = load ptr, ptr %114, align 8, !tbaa !63
  call void @N_VScale(double noundef %108, ptr noundef %112, ptr noundef %115)
  %116 = load ptr, ptr %5, align 8, !tbaa !13
  %117 = getelementptr inbounds nuw %struct.CVadjMemRec, ptr %116, i32 0, i32 22
  %118 = load i32, ptr %117, align 8, !tbaa !44
  %119 = icmp ne i32 %118, 0
  br i1 %119, label %120, label %151

120:                                              ; preds = %104
  store i32 0, ptr %7, align 4, !tbaa !9
  br label %121

121:                                              ; preds = %147, %120
  %122 = load i32, ptr %7, align 4, !tbaa !9
  %123 = load ptr, ptr %3, align 8, !tbaa !11
  %124 = getelementptr inbounds nuw %struct.CVodeMemRec, ptr %123, i32 0, i32 20
  %125 = load i32, ptr %124, align 4, !tbaa !56
  %126 = icmp slt i32 %122, %125
  br i1 %126, label %127, label %150

127:                                              ; preds = %121
  %128 = load ptr, ptr %3, align 8, !tbaa !11
  %129 = getelementptr inbounds nuw %struct.CVodeMemRec, ptr %128, i32 0, i32 78
  %130 = load double, ptr %129, align 8, !tbaa !84
  %131 = fdiv double 1.000000e+00, %130
  %132 = load ptr, ptr %3, align 8, !tbaa !11
  %133 = getelementptr inbounds nuw %struct.CVodeMemRec, ptr %132, i32 0, i32 57
  %134 = getelementptr inbounds [13 x ptr], ptr %133, i64 0, i64 1
  %135 = load ptr, ptr %134, align 8, !tbaa !73
  %136 = load i32, ptr %7, align 4, !tbaa !9
  %137 = sext i32 %136 to i64
  %138 = getelementptr inbounds ptr, ptr %135, i64 %137
  %139 = load ptr, ptr %138, align 8, !tbaa !72
  %140 = load ptr, ptr %6, align 8, !tbaa !59
  %141 = getelementptr inbounds nuw %struct.HermiteDataMemRec, ptr %140, i32 0, i32 3
  %142 = load ptr, ptr %141, align 8, !tbaa !65
  %143 = load i32, ptr %7, align 4, !tbaa !9
  %144 = sext i32 %143 to i64
  %145 = getelementptr inbounds ptr, ptr %142, i64 %144
  %146 = load ptr, ptr %145, align 8, !tbaa !72
  call void @N_VScale(double noundef %131, ptr noundef %139, ptr noundef %146)
  br label %147

147:                                              ; preds = %127
  %148 = load i32, ptr %7, align 4, !tbaa !9
  %149 = add nsw i32 %148, 1
  store i32 %149, ptr %7, align 4, !tbaa !9
  br label %121, !llvm.loop !85

150:                                              ; preds = %121
  br label %151

151:                                              ; preds = %150, %104
  br label %152

152:                                              ; preds = %151, %103
  call void @llvm.lifetime.end.p0(i64 4, ptr %8) #5
  call void @llvm.lifetime.end.p0(i64 4, ptr %7) #5
  call void @llvm.lifetime.end.p0(i64 8, ptr %6) #5
  call void @llvm.lifetime.end.p0(i64 8, ptr %5) #5
  ret i32 0
}