; Function Attrs: nounwind uwtable
define internal noundef i32 @CVAhermiteStorePnt(ptr noundef %0, ptr noundef readonly captures(none) %1) #0 {
  %3 = getelementptr inbounds nuw i8, ptr %0, i64 2192
  %4 = load ptr, ptr %3, align 8, !tbaa !3
  %5 = getelementptr inbounds nuw i8, ptr %1, i64 8
  %6 = load ptr, ptr %5, align 8, !tbaa !57
  %7 = getelementptr inbounds nuw i8, ptr %0, i64 320
  %8 = load ptr, ptr %7, align 8, !tbaa !69
  %9 = load ptr, ptr %6, align 8, !tbaa !52
  tail call void @N_VScale(double noundef 1.000000e+00, ptr noundef %8, ptr noundef %9) #8
  %10 = getelementptr inbounds nuw i8, ptr %4, i64 160
  %11 = load i32, ptr %10, align 8, !tbaa !38
  %.not = icmp eq i32 %11, 0
  br i1 %.not, label %.loopexit41, label %.preheader40

.preheader40:                                     ; preds = %2
  %12 = getelementptr inbounds nuw i8, ptr %0, i64 140
  %13 = load i32, ptr %12, align 4, !tbaa !50
  %14 = icmp sgt i32 %13, 0
  br i1 %14, label %.lr.ph, label %.loopexit41

.lr.ph:                                           ; preds = %.preheader40
  %15 = getelementptr inbounds nuw i8, ptr %0, i64 600
  %16 = getelementptr inbounds nuw i8, ptr %6, i64 16
  br label %17

17:                                               ; preds = %.lr.ph, %17
  %indvars.iv = phi i64 [ 0, %.lr.ph ], [ %indvars.iv.next, %17 ]
  %18 = load ptr, ptr %15, align 8, !tbaa !71
  %19 = getelementptr inbounds nuw ptr, ptr %18, i64 %indvars.iv
  %20 = load ptr, ptr %19, align 8, !tbaa !69
  %21 = load ptr, ptr %16, align 8, !tbaa !55
  %22 = getelementptr inbounds nuw ptr, ptr %21, i64 %indvars.iv
  %23 = load ptr, ptr %22, align 8, !tbaa !69
  tail call void @N_VScale(double noundef 1.000000e+00, ptr noundef %20, ptr noundef %23) #8
  %indvars.iv.next = add nuw nsw i64 %indvars.iv, 1
  %24 = load i32, ptr %12, align 4, !tbaa !50
  %25 = sext i32 %24 to i64
  %26 = icmp slt i64 %indvars.iv.next, %25
  br i1 %26, label %17, label %.loopexit41, !llvm.loop !74

.loopexit41:                                      ; preds = %17, %.preheader40, %2
  %27 = getelementptr inbounds nuw i8, ptr %0, i64 1432
  %28 = load i64, ptr %27, align 8, !tbaa !75
  %29 = icmp eq i64 %28, 0
  %30 = getelementptr inbounds nuw i8, ptr %6, i64 8
  %31 = load ptr, ptr %30, align 8, !tbaa !54
  br i1 %29, label %32, label %55

32:                                               ; preds = %.loopexit41
  %33 = getelementptr inbounds nuw i8, ptr %0, i64 8
  %34 = load ptr, ptr %33, align 8, !tbaa !76
  %35 = getelementptr inbounds nuw i8, ptr %0, i64 984
  %36 = load double, ptr %35, align 8, !tbaa !77
  %37 = load ptr, ptr %6, align 8, !tbaa !52
  %38 = getelementptr inbounds nuw i8, ptr %0, i64 16
  %39 = load ptr, ptr %38, align 8, !tbaa !78
  %40 = tail call i32 %34(double noundef %36, ptr noundef %37, ptr noundef %31, ptr noundef %39) #8
  %41 = load i32, ptr %10, align 8, !tbaa !38
  %.not39 = icmp eq i32 %41, 0
  br i1 %.not39, label %.loopexit, label %42

42:                                               ; preds = %32
  %43 = load double, ptr %35, align 8, !tbaa !77
  %44 = load ptr, ptr %6, align 8, !tbaa !52
  %45 = load ptr, ptr %30, align 8, !tbaa !54
  %46 = getelementptr inbounds nuw i8, ptr %6, i64 16
  %47 = load ptr, ptr %46, align 8, !tbaa !55
  %48 = getelementptr inbounds nuw i8, ptr %6, i64 24
  %49 = load ptr, ptr %48, align 8, !tbaa !56
  %50 = getelementptr inbounds nuw i8, ptr %0, i64 448
  %51 = load ptr, ptr %50, align 8, !tbaa !48
  %52 = getelementptr inbounds nuw i8, ptr %0, i64 456
  %53 = load ptr, ptr %52, align 8, !tbaa !79
  %54 = tail call i32 @cvSensRhsWrapper(ptr noundef nonnull %0, double noundef %43, ptr noundef %44, ptr noundef %45, ptr noundef %47, ptr noundef %49, ptr noundef %51, ptr noundef %53) #8
  br label %.loopexit

55:                                               ; preds = %.loopexit41
  %56 = getelementptr inbounds nuw i8, ptr %0, i64 944
  %57 = load double, ptr %56, align 8, !tbaa !80
  %58 = fdiv double 1.000000e+00, %57
  %59 = getelementptr inbounds nuw i8, ptr %0, i64 328
  %60 = load ptr, ptr %59, align 8, !tbaa !69
  tail call void @N_VScale(double noundef %58, ptr noundef %60, ptr noundef %31) #8
  %61 = load i32, ptr %10, align 8, !tbaa !38
  %.not38 = icmp eq i32 %61, 0
  br i1 %.not38, label %.loopexit, label %.preheader

.preheader:                                       ; preds = %55
  %62 = getelementptr inbounds nuw i8, ptr %0, i64 140
  %63 = load i32, ptr %62, align 4, !tbaa !50
  %64 = icmp sgt i32 %63, 0
  br i1 %64, label %.lr.ph44, label %.loopexit

.lr.ph44:                                         ; preds = %.preheader
  %65 = getelementptr inbounds nuw i8, ptr %0, i64 608
  %66 = getelementptr inbounds nuw i8, ptr %6, i64 24
  br label %67

67:                                               ; preds = %.lr.ph44, %67
  %indvars.iv46 = phi i64 [ 0, %.lr.ph44 ], [ %indvars.iv.next47, %67 ]
  %68 = load double, ptr %56, align 8, !tbaa !80
  %69 = fdiv double 1.000000e+00, %68
  %70 = load ptr, ptr %65, align 8, !tbaa !71
  %71 = getelementptr inbounds nuw ptr, ptr %70, i64 %indvars.iv46
  %72 = load ptr, ptr %71, align 8, !tbaa !69
  %73 = load ptr, ptr %66, align 8, !tbaa !56
  %74 = getelementptr inbounds nuw ptr, ptr %73, i64 %indvars.iv46
  %75 = load ptr, ptr %74, align 8, !tbaa !69
  tail call void @N_VScale(double noundef %69, ptr noundef %72, ptr noundef %75) #8
  %indvars.iv.next47 = add nuw nsw i64 %indvars.iv46, 1
  %76 = load i32, ptr %62, align 4, !tbaa !50
  %77 = sext i32 %76 to i64
  %78 = icmp slt i64 %indvars.iv.next47, %77
  br i1 %78, label %67, label %.loopexit, !llvm.loop !81

.loopexit:                                        ; preds = %67, %.preheader, %55, %32, %42
  ret i32 0
}